target datalayout = "e-m:e-p270:32:32-p271:32:32-p272:64:64-i64:64-i128:128-f80:128-n8:16:32:64-S128"
target triple = "x86_64-pc-linux-gnu"

%struct.png_row_info_struct = type { i32, i64, i8, i8, i8, i8 }

; Function Attrs: nounwind uwtable
define internal void @store4(ptr noundef %0, <2 x i64> noundef %1) #0 {
  %3 = alloca <2 x i64>, align 16
  %4 = alloca <4 x i32>, align 16
  %5 = alloca ptr, align 8
  %6 = alloca <2 x i64>, align 16
  %7 = alloca i32, align 4
  store ptr %0, ptr %5, align 8
  store <2 x i64> %1, ptr %6, align 16
  %8 = load <2 x i64>, ptr %6, align 16
  store <2 x i64> %8, ptr %3, align 16
  %9 = load <2 x i64>, ptr %3, align 16
  %10 = bitcast <2 x i64> %9 to <4 x i32>
  store <4 x i32> %10, ptr %4, align 16
  %11 = load <4 x i32>, ptr %4, align 16
  %12 = extractelement <4 x i32> %11, i32 0
  store i32 %12, ptr %7, align 4
  %13 = load ptr, ptr %5, align 8
  call void @llvm.memcpy.p0.p0.i64(ptr align 1 %13, ptr align 4 %7, i64 4, i1 false)
  ret void
}

; Function Attrs: nounwind uwtable
define internal <2 x i64> @load4(ptr noundef %0) #0 {
  %2 = alloca i32, align 4
  %3 = alloca <4 x i32>, align 16
  %4 = alloca ptr, align 8
  %5 = alloca i32, align 4
  store ptr %0, ptr %4, align 8
  %6 = load ptr, ptr %4, align 8
  call void @llvm.memcpy.p0.p0.i64(ptr align 4 %5, ptr align 1 %6, i64 4, i1 false)
  %7 = load i32, ptr %5, align 4
  store i32 %7, ptr %2, align 4
  %8 = load i32, ptr %2, align 4
  %9 = insertelement <4 x i32> poison, i32 %8, i32 0
  %10 = insertelement <4 x i32> %9, i32 0, i32 1
  %11 = insertelement <4 x i32> %10, i32 0, i32 2
  %12 = insertelement <4 x i32> %11, i32 0, i32 3
  store <4 x i32> %12, ptr %3, align 16
  %13 = load <4 x i32>, ptr %3, align 16
  %14 = bitcast <4 x i32> %13 to <2 x i64>
  ret <2 x i64> %14
}

; Function Attrs: nounwind uwtable
define void @png_read_filter_row_avg4_sse2(ptr noundef %0, ptr noundef %1, ptr noundef %2) #0 {
  %4 = alloca i8, align 1
  %5 = alloca i8, align 1
  %6 = alloca i8, align 1
  %7 = alloca i8, align 1
  %8 = alloca i8, align 1
  %9 = alloca i8, align 1
  %10 = alloca i8, align 1
  %11 = alloca i8, align 1
  %12 = alloca i8, align 1
  %13 = alloca i8, align 1
  %14 = alloca i8, align 1
  %15 = alloca i8, align 1
  %16 = alloca i8, align 1
  %17 = alloca i8, align 1
  %18 = alloca i8, align 1
  %19 = alloca i8, align 1
  %20 = alloca <16 x i8>, align 16
  %21 = alloca i8, align 1
  %22 = alloca <2 x i64>, align 16
  %23 = alloca <2 x i64>, align 16
  %24 = alloca <2 x i64>, align 16
  %25 = alloca <2 x i64>, align 16
  %26 = alloca <2 x i64>, align 16
  %27 = alloca <2 x i64>, align 16
  %28 = alloca <2 x i64>, align 16
  %29 = alloca <2 x i64>, align 16
  %30 = alloca <2 x i64>, align 16
  %31 = alloca <2 x i64>, align 16
  %32 = alloca <2 x i64>, align 16
  %33 = alloca ptr, align 8
  %34 = alloca ptr, align 8
  %35 = alloca ptr, align 8
  %36 = alloca i64, align 8
  %37 = alloca <2 x i64>, align 16
  %38 = alloca <2 x i64>, align 16
  %39 = alloca <2 x i64>, align 16
  %40 = alloca <2 x i64>, align 16
  %41 = alloca <2 x i64>, align 16
  store ptr %0, ptr %33, align 8
  store ptr %1, ptr %34, align 8
  store ptr %2, ptr %35, align 8
  store <2 x i64> zeroinitializer, ptr %32, align 16
  %42 = load <2 x i64>, ptr %32, align 16
  store <2 x i64> %42, ptr %37, align 16
  %43 = load <2 x i64>, ptr %37, align 16
  store <2 x i64> %43, ptr %40, align 16
  %44 = load ptr, ptr %33, align 8
  %45 = getelementptr inbounds %struct.png_row_info_struct, ptr %44, i32 0, i32 1
  %46 = load i64, ptr %45, align 8
  %47 = add i64 %46, 4
  store i64 %47, ptr %36, align 8
  br label %48

48:                                               ; preds = %51, %3
  %49 = load i64, ptr %36, align 8
  %50 = icmp ugt i64 %49, 4
  br i1 %50, label %51, label %146

51:                                               ; preds = %48
  %52 = load ptr, ptr %35, align 8
  %53 = call <2 x i64> @load4(ptr noundef %52)
  store <2 x i64> %53, ptr %38, align 16
  %54 = load <2 x i64>, ptr %40, align 16
  store <2 x i64> %54, ptr %39, align 16
  %55 = load ptr, ptr %34, align 8
  %56 = call <2 x i64> @load4(ptr noundef %55)
  store <2 x i64> %56, ptr %40, align 16
  %57 = load <2 x i64>, ptr %39, align 16
  %58 = load <2 x i64>, ptr %38, align 16
  store <2 x i64> %57, ptr %28, align 16
  store <2 x i64> %58, ptr %29, align 16
  %59 = load <2 x i64>, ptr %28, align 16
  %60 = bitcast <2 x i64> %59 to <16 x i8>
  %61 = load <2 x i64>, ptr %29, align 16
  %62 = bitcast <2 x i64> %61 to <16 x i8>
  %63 = call <16 x i8> @llvm.x86.sse2.pavg.b(<16 x i8> %60, <16 x i8> %62)
  %64 = bitcast <16 x i8> %63 to <2 x i64>
  store <2 x i64> %64, ptr %41, align 16
  %65 = load <2 x i64>, ptr %41, align 16
  %66 = load <2 x i64>, ptr %39, align 16
  %67 = load <2 x i64>, ptr %38, align 16
  store <2 x i64> %66, ptr %22, align 16
  store <2 x i64> %67, ptr %23, align 16
  %68 = load <2 x i64>, ptr %22, align 16
  %69 = load <2 x i64>, ptr %23, align 16
  %70 = xor <2 x i64> %68, %69
  store i8 1, ptr %21, align 1
  %71 = load i8, ptr %21, align 1
  %72 = load i8, ptr %21, align 1
  %73 = load i8, ptr %21, align 1
  %74 = load i8, ptr %21, align 1
  %75 = load i8, ptr %21, align 1
  %76 = load i8, ptr %21, align 1
  %77 = load i8, ptr %21, align 1
  %78 = load i8, ptr %21, align 1
  %79 = load i8, ptr %21, align 1
  %80 = load i8, ptr %21, align 1
  %81 = load i8, ptr %21, align 1
  %82 = load i8, ptr %21, align 1
  %83 = load i8, ptr %21, align 1
  %84 = load i8, ptr %21, align 1
  %85 = load i8, ptr %21, align 1
  %86 = load i8, ptr %21, align 1
  store i8 %71, ptr %4, align 1
  store i8 %72, ptr %5, align 1
  store i8 %73, ptr %6, align 1
  store i8 %74, ptr %7, align 1
  store i8 %75, ptr %8, align 1
  store i8 %76, ptr %9, align 1
  store i8 %77, ptr %10, align 1
  store i8 %78, ptr %11, align 1
  store i8 %79, ptr %12, align 1
  store i8 %80, ptr %13, align 1
  store i8 %81, ptr %14, align 1
  store i8 %82, ptr %15, align 1
  store i8 %83, ptr %16, align 1
  store i8 %84, ptr %17, align 1
  store i8 %85, ptr %18, align 1
  store i8 %86, ptr %19, align 1
  %87 = load i8, ptr %19, align 1
  %88 = insertelement <16 x i8> poison, i8 %87, i32 0
  %89 = load i8, ptr %18, align 1
  %90 = insertelement <16 x i8> %88, i8 %89, i32 1
  %91 = load i8, ptr %17, align 1
  %92 = insertelement <16 x i8> %90, i8 %91, i32 2
  %93 = load i8, ptr %16, align 1
  %94 = insertelement <16 x i8> %92, i8 %93, i32 3
  %95 = load i8, ptr %15, align 1
  %96 = insertelement <16 x i8> %94, i8 %95, i32 4
  %97 = load i8, ptr %14, align 1
  %98 = insertelement <16 x i8> %96, i8 %97, i32 5
  %99 = load i8, ptr %13, align 1
  %100 = insertelement <16 x i8> %98, i8 %99, i32 6
  %101 = load i8, ptr %12, align 1
  %102 = insertelement <16 x i8> %100, i8 %101, i32 7
  %103 = load i8, ptr %11, align 1
  %104 = insertelement <16 x i8> %102, i8 %103, i32 8
  %105 = load i8, ptr %10, align 1
  %106 = insertelement <16 x i8> %104, i8 %105, i32 9
  %107 = load i8, ptr %9, align 1
  %108 = insertelement <16 x i8> %106, i8 %107, i32 10
  %109 = load i8, ptr %8, align 1
  %110 = insertelement <16 x i8> %108, i8 %109, i32 11
  %111 = load i8, ptr %7, align 1
  %112 = insertelement <16 x i8> %110, i8 %111, i32 12
  %113 = load i8, ptr %6, align 1
  %114 = insertelement <16 x i8> %112, i8 %113, i32 13
  %115 = load i8, ptr %5, align 1
  %116 = insertelement <16 x i8> %114, i8 %115, i32 14
  %117 = load i8, ptr %4, align 1
  %118 = insertelement <16 x i8> %116, i8 %117, i32 15
  store <16 x i8> %118, ptr %20, align 16
  %119 = load <16 x i8>, ptr %20, align 16
  %120 = bitcast <16 x i8> %119 to <2 x i64>
  store <2 x i64> %70, ptr %24, align 16
  store <2 x i64> %120, ptr %25, align 16
  %121 = load <2 x i64>, ptr %24, align 16
  %122 = load <2 x i64>, ptr %25, align 16
  %123 = and <2 x i64> %121, %122
  store <2 x i64> %65, ptr %26, align 16
  store <2 x i64> %123, ptr %27, align 16
  %124 = load <2 x i64>, ptr %26, align 16
  %125 = bitcast <2 x i64> %124 to <16 x i8>
  %126 = load <2 x i64>, ptr %27, align 16
  %127 = bitcast <2 x i64> %126 to <16 x i8>
  %128 = sub <16 x i8> %125, %127
  %129 = bitcast <16 x i8> %128 to <2 x i64>
  store <2 x i64> %129, ptr %41, align 16
  %130 = load <2 x i64>, ptr %40, align 16
  %131 = load <2 x i64>, ptr %41, align 16
  store <2 x i64> %130, ptr %30, align 16
  store <2 x i64> %131, ptr %31, align 16
  %132 = load <2 x i64>, ptr %30, align 16
  %133 = bitcast <2 x i64> %132 to <16 x i8>
  %134 = load <2 x i64>, ptr %31, align 16
  %135 = bitcast <2 x i64> %134 to <16 x i8>
  %136 = add <16 x i8> %133, %135
  %137 = bitcast <16 x i8> %136 to <2 x i64>
  store <2 x i64> %137, ptr %40, align 16
  %138 = load ptr, ptr %34, align 8
  %139 = load <2 x i64>, ptr %40, align 16
  call void @store4(ptr noundef %138, <2 x i64> noundef %139)
  %140 = load ptr, ptr %35, align 8
  %141 = getelementptr inbounds i8, ptr %140, i64 4
  store ptr %141, ptr %35, align 8
  %142 = load ptr, ptr %34, align 8
  %143 = getelementptr inbounds i8, ptr %142, i64 4
  store ptr %143, ptr %34, align 8
  %144 = load i64, ptr %36, align 8
  %145 = sub i64 %144, 4
  store i64 %145, ptr %36, align 8
  br label %48, !llvm.loop !8

146:                                              ; preds = %48
  ret void
}