; Function Attrs: nofree norecurse nosync nounwind memory(argmem: readwrite) uwtable
define void @png_read_filter_row_avg4_sse2(ptr noundef readonly captures(none) %0, ptr noundef captures(none) %1, ptr noundef readonly captures(none) %2) local_unnamed_addr #0 {
  %4 = getelementptr inbounds nuw i8, ptr %0, i64 8
  %5 = load i64, ptr %4, align 8
  %6 = add i64 %5, 4
  %7 = icmp ugt i64 %6, 4
  br i1 %7, label %.lr.ph, label %._crit_edge

.lr.ph:                                           ; preds = %3, %.lr.ph
  %.067 = phi ptr [ %24, %.lr.ph ], [ %1, %3 ]
  %.06166 = phi <2 x i64> [ %20, %.lr.ph ], [ zeroinitializer, %3 ]
  %.06265 = phi ptr [ %23, %.lr.ph ], [ %2, %3 ]
  %.06364 = phi i64 [ %25, %.lr.ph ], [ %6, %3 ]
  %.062.val = load i32, ptr %.06265, align 1
  %8 = insertelement <4 x i32> <i32 poison, i32 0, i32 0, i32 0>, i32 %.062.val, i64 0
  %9 = bitcast <4 x i32> %8 to <2 x i64>
  %.0.val = load i32, ptr %.067, align 1
  %10 = insertelement <4 x i32> <i32 poison, i32 0, i32 0, i32 0>, i32 %.0.val, i64 0
  %11 = bitcast <2 x i64> %.06166 to <16 x i8>
  %12 = bitcast <4 x i32> %8 to <16 x i8>
  %13 = tail call <16 x i8> @llvm.x86.sse2.pavg.b(<16 x i8> %11, <16 x i8> %12)
  %14 = xor <2 x i64> %.06166, %9
  %15 = bitcast <2 x i64> %14 to <16 x i8>
  %16 = and <16 x i8> %15, splat (i8 1)
  %17 = sub <16 x i8> %13, %16
  %18 = bitcast <4 x i32> %10 to <16 x i8>
  %19 = add <16 x i8> %17, %18
  %20 = bitcast <16 x i8> %19 to <2 x i64>
  %21 = bitcast <16 x i8> %19 to <4 x i32>
  %22 = extractelement <4 x i32> %21, i64 0
  store i32 %22, ptr %.067, align 1
  %23 = getelementptr inbounds nuw i8, ptr %.06265, i64 4
  %24 = getelementptr inbounds nuw i8, ptr %.067, i64 4
  %25 = add i64 %.06364, -4
  %26 = icmp ugt i64 %25, 4
  br i1 %26, label %.lr.ph, label %._crit_edge, !llvm.loop !8

._crit_edge:                                      ; preds = %.lr.ph, %3
  ret void
}